target datalayout = "e-m:e-p270:32:32-p271:32:32-p272:64:64-i64:64-i128:128-f80:128-n8:16:32:64-S128"
target triple = "x86_64-pc-linux-gnu"

%struct.gitdiff_data = type { ptr, i32, i32 }

@.str.23 = private unnamed_addr constant [1 x i8] zeroinitializer, align 1
@git_gettext_enabled = external global i32, align 4
@sane_ctype = external constant [256 x i8], align 16
@.str.125 = private unnamed_addr constant [64 x i8] c"git apply: bad git-diff - expected /dev/null, got %s on line %d\00", align 1
@.str.126 = private unnamed_addr constant [63 x i8] c"git apply: bad git-diff - inconsistent new filename on line %d\00", align 1
@.str.127 = private unnamed_addr constant [63 x i8] c"git apply: bad git-diff - inconsistent old filename on line %d\00", align 1
@.str.128 = private unnamed_addr constant [56 x i8] c"git apply: bad git-diff - expected /dev/null on line %d\00", align 1
@.str.130 = private unnamed_addr constant [10 x i8] c"/dev/null\00", align 1

; Function Attrs: inlinehint nounwind uwtable
define internal zeroext i1 @skip_prefix(ptr noundef %0, ptr noundef %1, ptr noundef %2) #3 {
  %4 = alloca i1, align 1
  %5 = alloca ptr, align 8
  %6 = alloca ptr, align 8
  %7 = alloca ptr, align 8
  store ptr %0, ptr %5, align 8, !tbaa !11
  store ptr %1, ptr %6, align 8, !tbaa !11
  store ptr %2, ptr %7, align 8, !tbaa !119
  br label %8

8:                                                ; preds = %16, %3
  %9 = load ptr, ptr %6, align 8, !tbaa !11
  %10 = load i8, ptr %9, align 1, !tbaa !57
  %11 = icmp ne i8 %10, 0
  br i1 %11, label %15, label %12

12:                                               ; preds = %8
  %13 = load ptr, ptr %5, align 8, !tbaa !11
  %14 = load ptr, ptr %7, align 8, !tbaa !119
  store ptr %13, ptr %14, align 8, !tbaa !11
  store i1 true, ptr %4, align 1
  br label %27

15:                                               ; preds = %8
  br label %16

16:                                               ; preds = %15
  %17 = load ptr, ptr %5, align 8, !tbaa !11
  %18 = getelementptr inbounds nuw i8, ptr %17, i32 1
  store ptr %18, ptr %5, align 8, !tbaa !11
  %19 = load i8, ptr %17, align 1, !tbaa !57
  %20 = sext i8 %19 to i32
  %21 = load ptr, ptr %6, align 8, !tbaa !11
  %22 = getelementptr inbounds nuw i8, ptr %21, i32 1
  store ptr %22, ptr %6, align 8, !tbaa !11
  %23 = load i8, ptr %21, align 1, !tbaa !57
  %24 = sext i8 %23 to i32
  %25 = icmp eq i32 %20, %24
  br i1 %25, label %8, label %26, !llvm.loop !163

26:                                               ; preds = %16
  store i1 false, ptr %4, align 1
  br label %27

27:                                               ; preds = %26, %12
  %28 = load i1, ptr %4, align 1
  ret i1 %28
}

; Function Attrs: nounwind uwtable
define internal i32 @is_dev_null(ptr noundef %0) #0 {
  %2 = alloca ptr, align 8
  store ptr %0, ptr %2, align 8, !tbaa !11
  %3 = load ptr, ptr %2, align 8, !tbaa !11
  %4 = call zeroext i1 @skip_prefix(ptr noundef %3, ptr noundef @.str.130, ptr noundef %2)
  br i1 %4, label %5, label %14

5:                                                ; preds = %1
  %6 = load ptr, ptr %2, align 8, !tbaa !11
  %7 = load i8, ptr %6, align 1, !tbaa !57
  %8 = zext i8 %7 to i64
  %9 = getelementptr inbounds nuw [256 x i8], ptr @sane_ctype, i64 0, i64 %8
  %10 = load i8, ptr %9, align 1, !tbaa !57
  %11 = zext i8 %10 to i32
  %12 = and i32 %11, 1
  %13 = icmp ne i32 %12, 0
  br label %14

14:                                               ; preds = %5, %1
  %15 = phi i1 [ false, %1 ], [ %13, %5 ]
  %16 = zext i1 %15 to i32
  ret i32 %16
}

; Function Attrs: inlinehint nounwind uwtable
define internal i32 @const_error() #3 {
  ret i32 -1
}

; Function Attrs: inlinehint nounwind uwtable
define internal ptr @_(ptr noundef %0) #3 {
  %2 = alloca ptr, align 8
  %3 = alloca ptr, align 8
  store ptr %0, ptr %3, align 8, !tbaa !11
  %4 = load ptr, ptr %3, align 8, !tbaa !11
  %5 = load i8, ptr %4, align 1, !tbaa !57
  %6 = icmp ne i8 %5, 0
  br i1 %6, label %8, label %7

7:                                                ; preds = %1
  store ptr @.str.23, ptr %2, align 8
  br label %16

8:                                                ; preds = %1
  %9 = load i32, ptr @git_gettext_enabled, align 4, !tbaa !39
  %10 = icmp ne i32 %9, 0
  br i1 %10, label %13, label %11

11:                                               ; preds = %8
  %12 = load ptr, ptr %3, align 8, !tbaa !11
  store ptr %12, ptr %2, align 8
  br label %16

13:                                               ; preds = %8
  %14 = load ptr, ptr %3, align 8, !tbaa !11
  %15 = call ptr @dcgettext(ptr noundef null, ptr noundef %14, i32 noundef 5) #12
  store ptr %15, ptr %2, align 8
  br label %16

16:                                               ; preds = %13, %11, %7
  %17 = load ptr, ptr %2, align 8
  ret ptr %17
}

; Function Attrs: nounwind uwtable
define internal ptr @find_name(ptr noundef %0, ptr noundef %1, ptr noundef %2, i32 noundef %3, i32 noundef %4) #0 {
  %6 = alloca ptr, align 8
  %7 = alloca ptr, align 8
  %8 = alloca ptr, align 8
  %9 = alloca ptr, align 8
  %10 = alloca i32, align 4
  %11 = alloca i32, align 4
  %12 = alloca ptr, align 8
  %13 = alloca i32, align 4
  store ptr %0, ptr %7, align 8, !tbaa !75
  store ptr %1, ptr %8, align 8, !tbaa !11
  store ptr %2, ptr %9, align 8, !tbaa !11
  store i32 %3, ptr %10, align 4, !tbaa !39
  store i32 %4, ptr %11, align 4, !tbaa !39
  %14 = load ptr, ptr %8, align 8, !tbaa !11
  %15 = load i8, ptr %14, align 1, !tbaa !57
  %16 = sext i8 %15 to i32
  %17 = icmp eq i32 %16, 34
  br i1 %17, label %18, label %31

18:                                               ; preds = %5
  call void @llvm.lifetime.start.p0(i64 8, ptr %12) #12
  %19 = load ptr, ptr %7, align 8, !tbaa !75
  %20 = load ptr, ptr %8, align 8, !tbaa !11
  %21 = load i32, ptr %10, align 4, !tbaa !39
  %22 = call ptr @find_name_gnu(ptr noundef %19, ptr noundef %20, i32 noundef %21)
  store ptr %22, ptr %12, align 8, !tbaa !11
  %23 = load ptr, ptr %12, align 8, !tbaa !11
  %24 = icmp ne ptr %23, null
  br i1 %24, label %25, label %27

25:                                               ; preds = %18
  %26 = load ptr, ptr %12, align 8, !tbaa !11
  store ptr %26, ptr %6, align 8
  store i32 1, ptr %13, align 4
  br label %28

27:                                               ; preds = %18
  store i32 0, ptr %13, align 4
  br label %28

28:                                               ; preds = %27, %25
  call void @llvm.lifetime.end.p0(i64 8, ptr %12) #12
  %29 = load i32, ptr %13, align 4
  switch i32 %29, label %40 [
    i32 0, label %30
    i32 1, label %38
  ]

30:                                               ; preds = %28
  br label %31

31:                                               ; preds = %30, %5
  %32 = load ptr, ptr %7, align 8, !tbaa !75
  %33 = load ptr, ptr %8, align 8, !tbaa !11
  %34 = load ptr, ptr %9, align 8, !tbaa !11
  %35 = load i32, ptr %10, align 4, !tbaa !39
  %36 = load i32, ptr %11, align 4, !tbaa !39
  %37 = call ptr @find_name_common(ptr noundef %32, ptr noundef %33, ptr noundef %34, i32 noundef %35, ptr noundef null, i32 noundef %36)
  store ptr %37, ptr %6, align 8
  br label %38

38:                                               ; preds = %31, %28
  %39 = load ptr, ptr %6, align 8
  ret ptr %39

40:                                               ; preds = %28
  unreachable
}

; Function Attrs: nounwind uwtable
define internal i32 @gitdiff_verify_name(ptr noundef %0, ptr noundef %1, i32 noundef %2, ptr noundef %3, i32 noundef %4) #0 {
  %6 = alloca i32, align 4
  %7 = alloca ptr, align 8
  %8 = alloca ptr, align 8
  %9 = alloca i32, align 4
  %10 = alloca ptr, align 8
  %11 = alloca i32, align 4
  %12 = alloca ptr, align 8
  %13 = alloca i32, align 4
  store ptr %0, ptr %7, align 8, !tbaa !97
  store ptr %1, ptr %8, align 8, !tbaa !11
  store i32 %2, ptr %9, align 4, !tbaa !39
  store ptr %3, ptr %10, align 8, !tbaa !119
  store i32 %4, ptr %11, align 4, !tbaa !39
  %14 = load ptr, ptr %10, align 8, !tbaa !119
  %15 = load ptr, ptr %14, align 8, !tbaa !11
  %16 = icmp ne ptr %15, null
  br i1 %16, label %30, label %17

17:                                               ; preds = %5
  %18 = load i32, ptr %9, align 4, !tbaa !39
  %19 = icmp ne i32 %18, 0
  br i1 %19, label %30, label %20

20:                                               ; preds = %17
  %21 = load ptr, ptr %7, align 8, !tbaa !97
  %22 = getelementptr inbounds nuw %struct.gitdiff_data, ptr %21, i32 0, i32 0
  %23 = load ptr, ptr %22, align 8, !tbaa !83
  %24 = load ptr, ptr %8, align 8, !tbaa !11
  %25 = load ptr, ptr %7, align 8, !tbaa !97
  %26 = getelementptr inbounds nuw %struct.gitdiff_data, ptr %25, i32 0, i32 2
  %27 = load i32, ptr %26, align 4, !tbaa !86
  %28 = call ptr @find_name(ptr noundef %23, ptr noundef %24, ptr noundef null, i32 noundef %27, i32 noundef 2)
  %29 = load ptr, ptr %10, align 8, !tbaa !119
  store ptr %28, ptr %29, align 8, !tbaa !11
  store i32 0, ptr %6, align 4
  br label %96

30:                                               ; preds = %17, %5
  %31 = load ptr, ptr %10, align 8, !tbaa !119
  %32 = load ptr, ptr %31, align 8, !tbaa !11
  %33 = icmp ne ptr %32, null
  br i1 %33, label %34, label %83

34:                                               ; preds = %30
  call void @llvm.lifetime.start.p0(i64 8, ptr %12) #12
  %35 = load i32, ptr %9, align 4, !tbaa !39
  %36 = icmp ne i32 %35, 0
  br i1 %36, label %37, label %46

37:                                               ; preds = %34
  %38 = call ptr @_(ptr noundef @.str.125)
  %39 = load ptr, ptr %10, align 8, !tbaa !119
  %40 = load ptr, ptr %39, align 8, !tbaa !11
  %41 = load ptr, ptr %7, align 8, !tbaa !97
  %42 = getelementptr inbounds nuw %struct.gitdiff_data, ptr %41, i32 0, i32 1
  %43 = load i32, ptr %42, align 8, !tbaa !85
  %44 = call i32 (ptr, ...) @error(ptr noundef %38, ptr noundef %40, i32 noundef %43)
  %45 = call i32 @const_error()
  store i32 %45, ptr %6, align 4
  store i32 1, ptr %13, align 4
  br label %80

46:                                               ; preds = %34
  %47 = load ptr, ptr %7, align 8, !tbaa !97
  %48 = getelementptr inbounds nuw %struct.gitdiff_data, ptr %47, i32 0, i32 0
  %49 = load ptr, ptr %48, align 8, !tbaa !83
  %50 = load ptr, ptr %8, align 8, !tbaa !11
  %51 = load ptr, ptr %7, align 8, !tbaa !97
  %52 = getelementptr inbounds nuw %struct.gitdiff_data, ptr %51, i32 0, i32 2
  %53 = load i32, ptr %52, align 4, !tbaa !86
  %54 = call ptr @find_name(ptr noundef %49, ptr noundef %50, ptr noundef null, i32 noundef %53, i32 noundef 2)
  store ptr %54, ptr %12, align 8, !tbaa !11
  %55 = load ptr, ptr %12, align 8, !tbaa !11
  %56 = icmp ne ptr %55, null
  br i1 %56, label %57, label %63

57:                                               ; preds = %46
  %58 = load ptr, ptr %12, align 8, !tbaa !11
  %59 = load ptr, ptr %10, align 8, !tbaa !119
  %60 = load ptr, ptr %59, align 8, !tbaa !11
  %61 = call i32 @strcmp(ptr noundef %58, ptr noundef %60) #11
  %62 = icmp ne i32 %61, 0
  br i1 %62, label %63, label %78

63:                                               ; preds = %57, %46
  %64 = load ptr, ptr %12, align 8, !tbaa !11
  call void @free(ptr noundef %64) #12
  %65 = load i32, ptr %11, align 4, !tbaa !39
  %66 = icmp eq i32 %65, 1
  br i1 %66, label %67, label %69

67:                                               ; preds = %63
  %68 = call ptr @_(ptr noundef @.str.126)
  br label %71

69:                                               ; preds = %63
  %70 = call ptr @_(ptr noundef @.str.127)
  br label %71

71:                                               ; preds = %69, %67
  %72 = phi ptr [ %68, %67 ], [ %70, %69 ]
  %73 = load ptr, ptr %7, align 8, !tbaa !97
  %74 = getelementptr inbounds nuw %struct.gitdiff_data, ptr %73, i32 0, i32 1
  %75 = load i32, ptr %74, align 8, !tbaa !85
  %76 = call i32 (ptr, ...) @error(ptr noundef %72, i32 noundef %75)
  %77 = call i32 @const_error()
  store i32 %77, ptr %6, align 4
  store i32 1, ptr %13, align 4
  br label %80

78:                                               ; preds = %57
  %79 = load ptr, ptr %12, align 8, !tbaa !11
  call void @free(ptr noundef %79) #12
  store i32 0, ptr %13, align 4
  br label %80

80:                                               ; preds = %78, %71, %37
  call void @llvm.lifetime.end.p0(i64 8, ptr %12) #12
  %81 = load i32, ptr %13, align 4
  switch i32 %81, label %98 [
    i32 0, label %82
    i32 1, label %96
  ]

82:                                               ; preds = %80
  br label %95

83:                                               ; preds = %30
  %84 = load ptr, ptr %8, align 8, !tbaa !11
  %85 = call i32 @is_dev_null(ptr noundef %84)
  %86 = icmp ne i32 %85, 0
  br i1 %86, label %94, label %87

87:                                               ; preds = %83
  %88 = call ptr @_(ptr noundef @.str.128)
  %89 = load ptr, ptr %7, align 8, !tbaa !97
  %90 = getelementptr inbounds nuw %struct.gitdiff_data, ptr %89, i32 0, i32 1
  %91 = load i32, ptr %90, align 8, !tbaa !85
  %92 = call i32 (ptr, ...) @error(ptr noundef %88, i32 noundef %91)
  %93 = call i32 @const_error()
  store i32 %93, ptr %6, align 4
  br label %96

94:                                               ; preds = %83
  br label %95

95:                                               ; preds = %94, %82
  store i32 0, ptr %6, align 4
  br label %96

96:                                               ; preds = %95, %87, %80, %20
  %97 = load i32, ptr %6, align 4
  ret i32 %97

98:                                               ; preds = %80
  unreachable
}