; Function Attrs: nounwind uwtable
define internal fastcc range(i32 -1, 1) i32 @gitdiff_verify_name(ptr noundef readonly captures(none) %0, ptr noundef %1, i32 noundef %2, ptr noundef captures(none) %3, i32 noundef range(i32 0, 2) %4) unnamed_addr #0 {
  %6 = load ptr, ptr %3, align 8, !tbaa !32
  %7 = icmp ne ptr %6, null
  %8 = icmp ne i32 %2, 0
  %or.cond = or i1 %8, %7
  br i1 %or.cond, label %19, label %9

9:                                                ; preds = %5
  %10 = load ptr, ptr %0, align 8, !tbaa !74
  %11 = getelementptr inbounds nuw i8, ptr %0, i64 12
  %12 = load i32, ptr %11, align 4, !tbaa !78
  %13 = load i8, ptr %1, align 1, !tbaa !53
  %14 = icmp eq i8 %13, 34
  br i1 %14, label %15, label %17

15:                                               ; preds = %9
  %16 = tail call fastcc ptr @find_name_gnu(ptr noundef readonly %10, ptr noundef nonnull %1, i32 noundef %12)
  %.not.not.i = icmp eq ptr %16, null
  br i1 %.not.not.i, label %17, label %find_name.exit

17:                                               ; preds = %15, %9
  %18 = tail call fastcc ptr @find_name_common(ptr noundef readonly %10, ptr noundef nonnull %1, ptr noundef null, i32 noundef %12, ptr noundef null, i32 noundef 2)
  br label %find_name.exit

find_name.exit:                                   ; preds = %15, %17
  %.1.i = phi ptr [ %16, %15 ], [ %18, %17 ]
  store ptr %.1.i, ptr %3, align 8, !tbaa !32
  br label %.thread

19:                                               ; preds = %5
  br i1 %7, label %20, label %48

20:                                               ; preds = %19
  br i1 %8, label %21, label %29

21:                                               ; preds = %20
  %22 = load i32, ptr @git_gettext_enabled, align 4, !tbaa !34
  %.not4.i = icmp eq i32 %22, 0
  br i1 %.not4.i, label %_.exit, label %23

23:                                               ; preds = %21
  %24 = tail call ptr @dcgettext(ptr noundef null, ptr noundef nonnull @.str.125, i32 noundef 5) #21
  %.pre = load ptr, ptr %3, align 8, !tbaa !32
  br label %_.exit

_.exit:                                           ; preds = %21, %23
  %25 = phi ptr [ %.pre, %23 ], [ %6, %21 ]
  %.0.i = phi ptr [ %24, %23 ], [ @.str.125, %21 ]
  %26 = getelementptr inbounds nuw i8, ptr %0, i64 8
  %27 = load i32, ptr %26, align 8, !tbaa !77
  %28 = tail call i32 (ptr, ...) @error(ptr noundef %.0.i, ptr noundef %25, i32 noundef %27) #21
  br label %.thread

29:                                               ; preds = %20
  %30 = load ptr, ptr %0, align 8, !tbaa !74
  %31 = getelementptr inbounds nuw i8, ptr %0, i64 12
  %32 = load i32, ptr %31, align 4, !tbaa !78
  %33 = load i8, ptr %1, align 1, !tbaa !53
  %34 = icmp eq i8 %33, 34
  br i1 %34, label %35, label %find_name.exit31

35:                                               ; preds = %29
  %36 = tail call fastcc ptr @find_name_gnu(ptr noundef readonly %30, ptr noundef nonnull %1, i32 noundef %32)
  %.not.not.i30 = icmp eq ptr %36, null
  br i1 %.not.not.i30, label %find_name.exit31, label %find_name.exit31.thread

find_name.exit31:                                 ; preds = %29, %35
  %37 = tail call fastcc ptr @find_name_common(ptr noundef readonly %30, ptr noundef nonnull %1, ptr noundef null, i32 noundef %32, ptr noundef null, i32 noundef 2)
  %.not26 = icmp eq ptr %37, null
  br i1 %.not26, label %40, label %find_name.exit31.thread

find_name.exit31.thread:                          ; preds = %35, %find_name.exit31
  %.1.i2943 = phi ptr [ %37, %find_name.exit31 ], [ %36, %35 ]
  %38 = load ptr, ptr %3, align 8, !tbaa !32
  %39 = tail call i32 @strcmp(ptr noundef nonnull dereferenceable(1) %.1.i2943, ptr noundef nonnull dereferenceable(1) %38) #22
  %.not27 = icmp eq i32 %39, 0
  br i1 %.not27, label %47, label %40

40:                                               ; preds = %find_name.exit31.thread, %find_name.exit31
  %.1.i2944 = phi ptr [ %.1.i2943, %find_name.exit31.thread ], [ null, %find_name.exit31 ]
  tail call void @free(ptr noundef %.1.i2944) #21
  %.not28 = icmp eq i32 %4, 0
  %41 = load i32, ptr @git_gettext_enabled, align 4, !tbaa !34
  %.not4.i35 = icmp eq i32 %41, 0
  %.str.127..str.126 = select i1 %.not28, ptr @.str.127, ptr @.str.126
  br i1 %.not4.i35, label %_.exit34, label %_.exit34.sink.split

_.exit34.sink.split:                              ; preds = %40
  %42 = tail call ptr @dcgettext(ptr noundef null, ptr noundef nonnull %.str.127..str.126, i32 noundef 5) #21
  br label %_.exit34

_.exit34:                                         ; preds = %40, %_.exit34.sink.split
  %43 = phi ptr [ %42, %_.exit34.sink.split ], [ %.str.127..str.126, %40 ]
  %44 = getelementptr inbounds nuw i8, ptr %0, i64 8
  %45 = load i32, ptr %44, align 8, !tbaa !77
  %46 = tail call i32 (ptr, ...) @error(ptr noundef %43, i32 noundef %45) #21
  br label %.thread

47:                                               ; preds = %find_name.exit31.thread
  tail call void @free(ptr noundef nonnull %.1.i2943) #21
  br label %.thread

48:                                               ; preds = %19
  %scevgep.i = getelementptr i8, ptr %1, i64 9
  br label %49

49:                                               ; preds = %50, %48
  %.07.i.i = phi ptr [ %1, %48 ], [ %52, %50 ]
  %.06.i.idx.i = phi i64 [ 0, %48 ], [ %.06.i.add.i, %50 ]
  %exitcond.i = icmp eq i64 %.06.i.idx.i, 9
  br i1 %exitcond.i, label %is_dev_null.exit, label %50

50:                                               ; preds = %49
  %.06.i.ptr.i = getelementptr inbounds nuw i8, ptr @.str.130, i64 %.06.i.idx.i
  %51 = load i8, ptr %.06.i.ptr.i, align 1, !tbaa !53
  %52 = getelementptr inbounds nuw i8, ptr %.07.i.i, i64 1
  %53 = load i8, ptr %.07.i.i, align 1, !tbaa !53
  %.06.i.add.i = add nuw nsw i64 %.06.i.idx.i, 1
  %54 = icmp eq i8 %53, %51
  br i1 %54, label %49, label %is_dev_null.exit.thread, !llvm.loop !115

is_dev_null.exit:                                 ; preds = %49
  %55 = load i8, ptr %scevgep.i, align 1, !tbaa !53
  %56 = zext i8 %55 to i64
  %57 = getelementptr inbounds nuw [256 x i8], ptr @sane_ctype, i64 0, i64 %56
  %58 = load i8, ptr %57, align 1, !tbaa !53
  %59 = and i8 %58, 1
  %.not = icmp eq i8 %59, 0
  br i1 %.not, label %is_dev_null.exit.thread, label %.thread

is_dev_null.exit.thread:                          ; preds = %50, %is_dev_null.exit
  %60 = load i32, ptr @git_gettext_enabled, align 4, !tbaa !34
  %.not4.i38 = icmp eq i32 %60, 0
  br i1 %.not4.i38, label %_.exit40, label %61

61:                                               ; preds = %is_dev_null.exit.thread
  %62 = tail call ptr @dcgettext(ptr noundef null, ptr noundef nonnull @.str.128, i32 noundef 5) #21
  br label %_.exit40

_.exit40:                                         ; preds = %is_dev_null.exit.thread, %61
  %.0.i39 = phi ptr [ %62, %61 ], [ @.str.128, %is_dev_null.exit.thread ]
  %63 = getelementptr inbounds nuw i8, ptr %0, i64 8
  %64 = load i32, ptr %63, align 8, !tbaa !77
  %65 = tail call i32 (ptr, ...) @error(ptr noundef %.0.i39, i32 noundef %64) #21
  br label %.thread

.thread:                                          ; preds = %_.exit34, %_.exit, %is_dev_null.exit, %47, %_.exit40, %find_name.exit
  %.024 = phi i32 [ -1, %_.exit40 ], [ 0, %find_name.exit ], [ 0, %47 ], [ 0, %is_dev_null.exit ], [ -1, %_.exit ], [ -1, %_.exit34 ]
  ret i32 %.024
}